; Function Attrs: nounwind uwtable
define hidden void @_glfwSetWindowSizeLimitsX11(ptr noundef readonly captures(none) %0, i32 noundef %1, i32 noundef %2, i32 noundef %3, i32 noundef %4) local_unnamed_addr #0 {
  %6 = alloca %struct.XWindowAttributes, align 8
  call void @llvm.lifetime.start.p0(i64 136, ptr nonnull %6) #17
  %7 = load ptr, ptr getelementptr inbounds nuw (i8, ptr @_glfw, i64 141664), align 8, !tbaa !175
  %8 = load ptr, ptr getelementptr inbounds nuw (i8, ptr @_glfw, i64 137840), align 8, !tbaa !93
  %9 = getelementptr inbounds nuw i8, ptr %0, i64 1248
  %10 = load i64, ptr %9, align 8, !tbaa !140
  %11 = call i32 %7(ptr noundef %8, i64 noundef %10, ptr noundef nonnull %6) #17
  %12 = getelementptr inbounds nuw i8, ptr %6, i64 8
  %13 = load i32, ptr %12, align 8, !tbaa !248
  %14 = getelementptr inbounds nuw i8, ptr %6, i64 12
  %15 = load i32, ptr %14, align 4, !tbaa !249
  call void @llvm.lifetime.end.p0(i64 136, ptr nonnull %6) #17
  call fastcc void @updateNormalHints(ptr noundef %0, i32 noundef %13, i32 noundef %15)
  %16 = load ptr, ptr getelementptr inbounds nuw (i8, ptr @_glfw, i64 141544), align 8, !tbaa !261
  %17 = load ptr, ptr getelementptr inbounds nuw (i8, ptr @_glfw, i64 137840), align 8, !tbaa !93
  %18 = call i32 %16(ptr noundef %17) #17
  ret void
}